; ModuleID = '28/1190.c'
source_filename = "28/1190.c"
target datalayout = "e-m:e-p270:32:32-p271:32:32-p272:64:64-i64:64-f80:128-n8:16:32:64-S128"
target triple = "x86_64-pc-linux-gnu"

@.str = private unnamed_addr constant [3 x i8] c"%d\00", align 1
@.str.1 = private unnamed_addr constant [2 x i8] c",\00", align 1

; Function Attrs: noinline nounwind uwtable
define dso_local void @main() #0 {
  %1 = alloca [10000 x i8], align 16
  %2 = alloca i8, align 1
  %3 = alloca i32, align 4
  %4 = alloca i32, align 4
  %5 = alloca i32, align 4
  %6 = alloca [300 x i32], align 16
  store i32 0, i32* %4, align 4
  store i32 0, i32* %5, align 4
  %7 = getelementptr inbounds [10000 x i8], [10000 x i8]* %1, i64 0, i64 0
  %8 = call i32 (i8*, ...) bitcast (i32 (...)* @gets to i32 (i8*, ...)*)(i8* %7)
  store i32 0, i32* %3, align 4
  br label %9

9:                                                ; preds = %43, %0
  %10 = load i32, i32* %3, align 4
  %11 = sext i32 %10 to i64
  %12 = getelementptr inbounds [10000 x i8], [10000 x i8]* %1, i64 0, i64 %11
  %13 = load i8, i8* %12, align 1
  store i8 %13, i8* %2, align 1
  %14 = sext i8 %13 to i32
  %15 = icmp ne i32 %14, 0
  br i1 %15, label %16, label %46

16:                                               ; preds = %9
  %17 = load i8, i8* %2, align 1
  %18 = sext i8 %17 to i32
  %19 = icmp eq i32 %18, 32
  br i1 %19, label %20, label %21

20:                                               ; preds = %16
  store i32 0, i32* %5, align 4
  br label %42

21:                                               ; preds = %16
  %22 = load i32, i32* %5, align 4
  %23 = icmp eq i32 %22, 0
  br i1 %23, label %24, label %31

24:                                               ; preds = %21
  store i32 1, i32* %5, align 4
  %25 = load i32, i32* %4, align 4
  %26 = add nsw i32 %25, 1
  store i32 %26, i32* %4, align 4
  %27 = load i32, i32* %4, align 4
  %28 = sub nsw i32 %27, 1
  %29 = sext i32 %28 to i64
  %30 = getelementptr inbounds [300 x i32], [300 x i32]* %6, i64 0, i64 %29
  store i32 0, i32* %30, align 4
  br label %31

31:                                               ; preds = %24, %21
  %32 = load i32, i32* %4, align 4
  %33 = sub nsw i32 %32, 1
  %34 = sext i32 %33 to i64
  %35 = getelementptr inbounds [300 x i32], [300 x i32]* %6, i64 0, i64 %34
  %36 = load i32, i32* %35, align 4
  %37 = add nsw i32 %36, 1
  %38 = load i32, i32* %4, align 4
  %39 = sub nsw i32 %38, 1
  %40 = sext i32 %39 to i64
  %41 = getelementptr inbounds [300 x i32], [300 x i32]* %6, i64 0, i64 %40
  store i32 %37, i32* %41, align 4
  br label %42

42:                                               ; preds = %31, %20
  br label %43

43:                                               ; preds = %42
  %44 = load i32, i32* %3, align 4
  %45 = add nsw i32 %44, 1
  store i32 %45, i32* %3, align 4
  br label %9

46:                                               ; preds = %9
  store i32 0, i32* %3, align 4
  br label %47

47:                                               ; preds = %65, %46
  %48 = load i32, i32* %3, align 4
  %49 = load i32, i32* %4, align 4
  %50 = sub nsw i32 %49, 1
  %51 = icmp sle i32 %48, %50
  br i1 %51, label %52, label %68

52:                                               ; preds = %47
  %53 = load i32, i32* %3, align 4
  %54 = sext i32 %53 to i64
  %55 = getelementptr inbounds [300 x i32], [300 x i32]* %6, i64 0, i64 %54
  %56 = load i32, i32* %55, align 4
  %57 = call i32 (i8*, ...) @printf(i8* getelementptr inbounds ([3 x i8], [3 x i8]* @.str, i64 0, i64 0), i32 %56)
  %58 = load i32, i32* %3, align 4
  %59 = load i32, i32* %4, align 4
  %60 = sub nsw i32 %59, 1
  %61 = icmp slt i32 %58, %60
  br i1 %61, label %62, label %64

62:                                               ; preds = %52
  %63 = call i32 (i8*, ...) @printf(i8* getelementptr inbounds ([2 x i8], [2 x i8]* @.str.1, i64 0, i64 0))
  br label %64

64:                                               ; preds = %62, %52
  br label %65

65:                                               ; preds = %64
  %66 = load i32, i32* %3, align 4
  %67 = add nsw i32 %66, 1
  store i32 %67, i32* %3, align 4
  br label %47

68:                                               ; preds = %47
  ret void
}

declare dso_local i32 @gets(...) #1

declare dso_local i32 @printf(i8*, ...) #1


!llvm.module.flags = !{!0}
!llvm.ident = !{!1}

!0 = !{i32 1, !"wchar_size", i32 4}
!1 = !{!"clang version 10.0.0-4ubuntu1 "}
