; ModuleID = 'source-C-CXX/27/1190.c'
source_filename = "source-C-CXX/27/1190.c"
target datalayout = "e-m:e-p270:32:32-p271:32:32-p272:64:64-i64:64-f80:128-n8:16:32:64-S128"
target triple = "x86_64-pc-linux-gnu"

@.str = private unnamed_addr constant [3 x i8] c"%d\00", align 1

; Function Attrs: nounwind sspstrong uwtable
define dso_local void @main() local_unnamed_addr #0 {
  %1 = alloca [10000 x i8], align 16
  %2 = alloca [300 x i32], align 16
  %3 = getelementptr inbounds [10000 x i8], [10000 x i8]* %1, i64 0, i64 0
  call void @llvm.lifetime.start.p0i8(i64 10000, i8* nonnull %3) #5
  %4 = bitcast [300 x i32]* %2 to i8*
  call void @llvm.lifetime.start.p0i8(i64 1200, i8* nonnull %4) #5
  %5 = call i32 (i8*, ...) bitcast (i32 (...)* @gets to i32 (i8*, ...)*)(i8* nonnull %3) #5
  br label %6

6:                                                ; preds = %31, %0
  %7 = phi i64 [ %34, %31 ], [ 0, %0 ]
  %8 = phi i32 [ %32, %31 ], [ 0, %0 ]
  %9 = phi i32 [ %33, %31 ], [ 0, %0 ]
  %10 = getelementptr inbounds [10000 x i8], [10000 x i8]* %1, i64 0, i64 %7
  %11 = load i8, i8* %10, align 1, !tbaa !5
  switch i8 %11, label %18 [
    i8 0, label %12
    i8 32, label %31
  ]

12:                                               ; preds = %6
  %13 = icmp sgt i32 %8, 0
  br i1 %13, label %14, label %46

14:                                               ; preds = %12
  %15 = add nsw i32 %8, -1
  %16 = zext i32 %15 to i64
  %17 = zext i32 %8 to i64
  br label %35

18:                                               ; preds = %6
  %19 = icmp eq i32 %9, 0
  br i1 %19, label %20, label %24

20:                                               ; preds = %18
  %21 = add nsw i32 %8, 1
  %22 = sext i32 %8 to i64
  %23 = getelementptr inbounds [300 x i32], [300 x i32]* %2, i64 0, i64 %22
  store i32 0, i32* %23, align 4, !tbaa !8
  br label %24

24:                                               ; preds = %18, %20
  %25 = phi i32 [ %21, %20 ], [ %8, %18 ]
  %26 = add nsw i32 %25, -1
  %27 = sext i32 %26 to i64
  %28 = getelementptr inbounds [300 x i32], [300 x i32]* %2, i64 0, i64 %27
  %29 = load i32, i32* %28, align 4, !tbaa !8
  %30 = add nsw i32 %29, 1
  store i32 %30, i32* %28, align 4, !tbaa !8
  br label %31

31:                                               ; preds = %6, %24
  %32 = phi i32 [ %25, %24 ], [ %8, %6 ]
  %33 = phi i32 [ 1, %24 ], [ 0, %6 ]
  %34 = add nuw i64 %7, 1
  br label %6, !llvm.loop !10

35:                                               ; preds = %14, %43
  %36 = phi i64 [ 0, %14 ], [ %44, %43 ]
  %37 = getelementptr inbounds [300 x i32], [300 x i32]* %2, i64 0, i64 %36
  %38 = load i32, i32* %37, align 4, !tbaa !8
  %39 = call i32 (i8*, ...) @printf(i8* nonnull dereferenceable(1) getelementptr inbounds ([3 x i8], [3 x i8]* @.str, i64 0, i64 0), i32 %38)
  %40 = icmp ult i64 %36, %16
  br i1 %40, label %41, label %43

41:                                               ; preds = %35
  %42 = call i32 @putchar(i32 44)
  br label %43

43:                                               ; preds = %35, %41
  %44 = add nuw nsw i64 %36, 1
  %45 = icmp eq i64 %44, %17
  br i1 %45, label %46, label %35, !llvm.loop !12

46:                                               ; preds = %43, %12
  call void @llvm.lifetime.end.p0i8(i64 1200, i8* nonnull %4) #5
  call void @llvm.lifetime.end.p0i8(i64 10000, i8* nonnull %3) #5
  ret void
}

; Function Attrs: argmemonly mustprogress nofree nosync nounwind willreturn
declare void @llvm.lifetime.start.p0i8(i64 immarg, i8* nocapture) #1

declare i32 @gets(...) local_unnamed_addr #2

; Function Attrs: nofree nounwind
declare noundef i32 @printf(i8* nocapture noundef readonly, ...) local_unnamed_addr #3

; Function Attrs: argmemonly mustprogress nofree nosync nounwind willreturn
declare void @llvm.lifetime.end.p0i8(i64 immarg, i8* nocapture) #1

; Function Attrs: nofree nounwind
declare noundef i32 @putchar(i32 noundef) local_unnamed_addr #4


!llvm.module.flags = !{!0, !1, !2, !3}
!llvm.ident = !{!4}

!0 = !{i32 1, !"wchar_size", i32 4}
!1 = !{i32 7, !"PIC Level", i32 2}
!2 = !{i32 7, !"PIE Level", i32 2}
!3 = !{i32 7, !"uwtable", i32 1}
!4 = !{!"clang version 13.0.0"}
!5 = !{!6, !6, i64 0}
!6 = !{!"omnipotent char", !7, i64 0}
!7 = !{!"Simple C/C++ TBAA"}
!8 = !{!9, !9, i64 0}
!9 = !{!"int", !6, i64 0}
!10 = distinct !{!10, !11}
!11 = !{!"llvm.loop.mustprogress"}
!12 = distinct !{!12, !11}
